target datalayout = "e-m:e-p270:32:32-p271:32:32-p272:64:64-i64:64-i128:128-f80:128-n8:16:32:64-S128"
target triple = "x86_64-pc-linux-gnu"

; Function Attrs: mustprogress nounwind uwtable
define hidden noundef i32 @_ZN4cvc58internal6theory11quantifiers11mkStrictCTTENS2_11CegTermTypeE(i32 noundef %0) #4 {
  %2 = alloca i32, align 4
  %3 = alloca i32, align 4
  store i32 %0, ptr %3, align 4, !tbaa !3
  %4 = load i32, ptr %3, align 4, !tbaa !3
  %5 = icmp eq i32 %4, 2
  br i1 %5, label %6, label %7

6:                                                ; preds = %1
  store i32 3, ptr %2, align 4
  br label %14

7:                                                ; preds = %1
  %8 = load i32, ptr %3, align 4, !tbaa !3
  %9 = icmp eq i32 %8, 4
  br i1 %9, label %10, label %11

10:                                               ; preds = %7
  store i32 5, ptr %2, align 4
  br label %14

11:                                               ; preds = %7
  br label %12

12:                                               ; preds = %11
  %13 = load i32, ptr %3, align 4, !tbaa !3
  store i32 %13, ptr %2, align 4
  br label %14

14:                                               ; preds = %12, %10, %6
  %15 = load i32, ptr %2, align 4
  ret i32 %15
}