; Function Attrs: mustprogress nofree norecurse nosync nounwind willreturn memory(none) uwtable
define hidden noundef range(i32 3, 2) i32 @_ZN4cvc58internal6theory11quantifiers11mkStrictCTTENS2_11CegTermTypeE(i32 noundef %0) local_unnamed_addr #3 {
  switch i32 %0, label %3 [
    i32 2, label %4
    i32 4, label %2
  ]

2:                                                ; preds = %1
  br label %4

3:                                                ; preds = %1
  br label %4

4:                                                ; preds = %1, %3, %2
  %.0 = phi i32 [ 5, %2 ], [ %0, %3 ], [ 3, %1 ]
  ret i32 %.0
}